(lp0
VDiopters
p1
aVWired Headsets
p2
aVF-Pin-Coaxial Tip
p3
aVFlash Tubes
p4
aVBundles
p5
aVStamp Creation Systems
p6
aVPhoto Enlarging Paper
p7
aVMultimedia Cards
p8
aVVideo Projectors
p9
aVVehicle Mounts
p10
aVLaptops
p11
aVDevice Servers
p12
aVUSB-to-USB Adapters
p13
aVDVD Cases
p14
aVSpeaker Repair
p15
aVLighting
p16
aVScreen Protectors
p17
aVBag & Case Accessories
p18
aVService & Replacement Plans
p19
aVSkylight & UV Filters
p20
aVTouch Screen Tablet Accessories
p21
aVUnlocked Cell Phones
p22
aVDigital Voice Recorders
p23
aVCable Raceways
p24
aVCompact System Cameras
p25
aVDesktop Barebones
p26
aVAdapters
p27
aVBags & Cases
p28
aVEffects Filters
p29
aVSatellite Dish Mounts
p30
aVBlu-ray Recorders
p31
aVPDAs, Handhelds & Accessories
p32
aVUnfinished Hi-Fi Cabinets
p33
aVSecurity Locks
p34
aVComponent Receivers
p35
aVTelevision Accessories
p36
aVRadio Scanners
p37
aVCenter Columns
p38
aVInternal Hard Drives
p39
aVDisc Cleaners
p40
aVSatellite Finders
p41
aVCharging Stations
p42
aVDepth Finders
p43
aVSCSI Port Cards
p44
aVClothing, Shoes & Jewelry
p45
aVCDs & Vinyl
p46
aVBD-RE Discs
p47
aVRadio Antennas
p48
aVPortfolios
p49
aVCooling Pads
p50
aVOptical Drives
p51
aVScreen Protector Foils
p52
aVSatellite TV Equipment
p53
aVStylus Pens
p54
aVTV Turntables
p55
aVLens Cases
p56
aVFilter Cases
p57
aVPacifiers & Accessories
p58
aVGrills
p59
aVThunderbolt Cables
p60
aVLED TVs
p61
aVMonopods
p62
aVAPS Cameras
p63
aVCassette Player Adapters
p64
aVLaminate
p65
aVCable Sleeves
p66
aVComponent Preamplifiers
p67
aVCamera & Camcorder Lens Bundles
p68
aVDisc Jewel Cases
p69
aVSatellite Television
p70
aVFlashes
p71
aVBackground Support Equipment
p72
aVSplitters
p73
aVCharger Kits
p74
aVDVI Cables
p75
aVStereo Components
p76
aVCassette Players & Recorders
p77
aVChargers
p78
aVCar Care
p79
aVMemory Sticks
p80
aVStep-Down Rings
p81
aVContract Cell Phones
p82
aVCamera Shoulder Supports
p83
aVNetwork Attached Storage
p84
aVChangers
p85
aVLighting & Studio
p86
aVMiniDV
p87
aVBriefcases
p88
aVWireless Access Points
p89
aVSpeaker Accessories
p90
aVSlaves
p91
aVPapermaking
p92
aVSpeakers
p93
aVSpeaker Systems
p94
aVKeyboard & Mouse Combos
p95
aVRemote Triggers
p96
aVFilm Cameras
p97
aVHD DVD Players
p98
aVDigital SLR Cameras
p99
aVPower Converters
p100
aVDLT Cleaning Cartridges
p101
aVExternal TV Tuners
p102
aVHead Cleaners
p103
aVSurveillance Camera Lenses
p104
aVFishfinders
p105
aVDVD Recorders
p106
aVArchival Storage Binders
p107
aVSafelights
p108
aVLoupes
p109
aVShoe Mounts
p110
aVSlide Projectors
p111
aVNetwork Adapters
p112
aVDisc Storage Wallets
p113
aVSATA Cables
p114
aVStyling Products
p115
aVMedia Storage & Organization
p116
aVProfessional Photo Albums
p117
aVNetwork Cards
p118
aVCell Phones & Accessories
p119
aVCamera Lenses
p120
aVInternal Batteries
p121
aVLaptop Replacement Parts
p122
aVShortwave Radios
p123
aVFloor Cord Covers
p124
aVBooms & Stands
p125
aVMotorcycle & Powersports
p126
aVSandbags
p127
aVeBook Readers
p128
aVKeyboards
p129
aVComponent Video
p130
aVRemote Controls
p131
aVMemory
p132
aVCamera Chest Supports
p133
aVSkins
p134
aVCleaning & Repair
p135
aVEarth Sciences
p136
aVSecurity Sensors
p137
aVMotion Detectors
p138
aVTelescope Accessories
p139
aVMonoculars
p140
aVLine Cords
p141
aVCar Chargers
p142
aVPowerline Network Adapters
p143
aVShooting Tents
p144
aVAviation Charts
p145
aVStereo Jack Cables
p146
aVBrushes
p147
aVCycling GPS Units
p148
aVPersonal Radios
p149
aVLCD TVs
p150
aVSpeaker Connectors
p151
aVPower Cables
p152
aVGender Changers
p153
aVData Storage
p154
aVInternal Solid State Drives
p155
aVPDAs & Handhelds
p156
aVPortable CD Players
p157
aVFuses
p158
aVVehicle GPS
p159
aVAccessory Kits
p160
aVHard Drive Enclosures
p161
aVSubwoofer Cabinets
p162
aVCase Hardware & Latches
p163
aVReplacement Screens
p164
aVCloths & Towels
p165
aVDVD+R Discs
p166
aVFollow-Focus Levers
p167
aVVehicle Electronics Accessories
p168
aVTripods
p169
aVBinoculars
p170
aVVideo Monitors
p171
aVCole Haan
p172
aVCamcorder Cases
p173
aVVHS-C
p174
aVSwitches
p175
aVCopying Equipment
p176
aVCable Security Devices
p177
aVOverhead Supplies
p178
aVBattery Packs
p179
aVSubwoofer Cables
p180
aVxD-Picture Cards
p181
aVDVD-RW Discs
p182
aVCamcorder Batteries
p183
aVSleeves
p184
aVBinoculars & Scopes
p185
aVCar & Vehicle Electronics
p186
aVVehicle Backup Cameras
p187
aVTweeter Diaphragms
p188
aVMotorcycle Electronics
p189
aVOpera Glasses
p190
aVCell Phones
p191
aVBarlow Lenses
p192
aVProfessional Video Accessories
p193
aVHorns & Sirens
p194
aVUSB-to-VGA Adapters
p195
aVCode Readers & Scan Tools
p196
aVMemory Cards
p197
aVMicroscope Accessories
p198
aVMounts
p199
aVGraphics Cards
p200
aVMicrophones
p201
aVFlags
p202
aVAir Filters & Accessories
p203
aVRangefinder Cameras
p204
aVCables
p205
aVBackgrounds
p206
aVAdapters & Converters
p207
aVUnderwater Photography
p208
aVService Plans
p209
aVTablets
p210
aVPresentation Supplies
p211
aVKVM Switches
p212
aVSmartMedia Cards
p213
aVSoft Boxes
p214
aVBaby Products
p215
aVCamcorders
p216
aVSerial Port Cards
p217
aVStands
p218
aVHDD Cooling Fans
p219
aVSatellite Radio
p220
aVWebcams
p221
aVVideo Cables
p222
aVComputer Screws
p223
aVExternal Solid State Drives
p224
aVCar Headphones
p225
aVComputers & Accessories
p226
aVVehicle Audio & Video Installation
p227
aVTelevision & Video
p228
aVDisc Repair Kits
p229
aVEqualizers
p230
aVCables & Interconnects
p231
aVDigital Media Player Accessories
p232
aVMobile Hotspots
p233
aVDiagonals
p234
aVTV Antennas
p235
aVData Cartridges
p236
aVCamcorder
p237
aVChamois
p238
aVNumeric Keypads
p239
aVCar Cradles
p240
aVDigital Camera Accessories
p241
aVMarine Electronics
p242
aVMotorcycle GPS
p243
aVSpeaker Cables
p244
aVInterconnect Cables
p245
aVMounting Kits
p246
aVHeadsets
p247
aVCoaxial Speakers
p248
aVTripod Heads
p249
aVInterior Accessories
p250
aVCamera Cases
p251
aVVideo Surveillance
p252
aVUSB Lamps
p253
aVPortable Audio & Video
p254
aVParallel Adapters
p255
aVHandles
p256
aVNoise Filters
p257
aVDiffusers
p258
aVDigital Camera Lenses
p259
aVMini-SAS Cables
p260
aVShoe Mount Flashes
p261
aVExternal Battery Packs
p262
aVTrays & Bags
p263
aVSolar Chargers
p264
aVMemory Card Readers
p265
aVComputer Components
p266
aVFilm Processing Equipment
p267
aVLight Meters
p268
aVAutopilots
p269
aVFloorstanding Speakers
p270
aVFilters
p271
aVHi-8
p272
aVForeign Language Study & Reference
p273
aVEthernet Cables
p274
aVFinder Scopes
p275
aVHome Security Systems
p276
aVGrey Cards
p277
aVMice
p278
aVLenses
p279
aVRadios
p280
aVSecurity Monitors & Displays
p281
aVAntitheft
p282
aVPC Microphones
p283
aVComputer & Monitor Mounts
p284
aVTripod & Monopod Accessories
p285
aVCamera Cine Dollies
p286
aVExtension Cords
p287
aVReplacement Parts
p288
aVSurveillance DVR Kits
p289
aVGPS Trackers
p290
aVRadar Systems
p291
aVLens Hoods
p292
aVServers
p293
aVInternal Sound Cards
p294
aVWarranties & Services
p295
aVColor Correction & Compensation Filters
p296
aVDigital Coaxial Cables
p297
aVBinocular Cases
p298
aVCleaning Equipment
p299
aVNursery
p300
aVPortable Photo Printers
p301
aVDVD Players
p302
aVForeign Language Dictionaries & Thesauruses
p303
aVPC Headsets
p304
aVCrossover Parts
p305
aVCPU Processors
p306
aVHeadphones
p307
aVSubwoofer Kits
p308
aVInternal DVD Drives
p309
aVOverhead Video
p310
aVRadio Wiring Harnesses
p311
aVTrackballs
p312
aVHDMI Cables
p313
aVHair Color
p314
aVAircraft Avionics
p315
aVMatte Boxes
p316
aVFlattening Irons
p317
aVDVD Drives
p318
aVBatteries, Chargers & Accessories
p319
aVComputers
p320
aVI/O Port Cards
p321
aVCamera
p322
aVCassette Storage
p323
aVGolf Course GPS Units
p324
aVSpeaker Parts & Components
p325
aVHelmet Accessories
p326
aVUSB Beverage Warmers
p327
aVSingle-Use Cameras
p328
aVTripod Legs
p329
aVSurveillance Camera Cables
p330
aVCamera Cranes
p331
aVLens Cleaners
p332
aVGraphics Tablets
p333
aVDigital Pens
p334
aVWall Chargers
p335
aVSurface-mounted Speakers
p336
aVIn-Visor Video
p337
aVFirewire Cables
p338
aVPolarizing Filters
p339
aVAntennas
p340
aVAviation Electronics
p341
aVInput Devices
p342
aVInstant Cameras
p343
aVTape Decks
p344
aVUSB Network Adapters
p345
aVTurntables
p346
aVPower Strips
p347
aVSurveillance Housing & Mounting Brackets
p348
aVStep-Up Rings
p349
aVColor Calibration Charts
p350
aVCompound Monocular Microscopes
p351
aVCar Electronics
p352
aVLaptop & Netbook Computer Accessories
p353
aVTraffic Message Channel (TMC) Receiver Modules
p354
aVSecurity & Surveillance
p355
aVFirewire Adapters
p356
aVDVD Players & Recorders
p357
aVUSB Port Cards
p358
aVUninterrupted Power Supply (UPS)
p359
aVBackpacks
p360
aVUSB Fans
p361
aVTiming Belt Kits
p362
aVVideo Glasses
p363
aVMousses & Foams
p364
aVSignal Boosters
p365
aVTelescope Cases
p366
aVPDUs
p367
aVHandheld Digital Photo Viewers
p368
aVAdapter Rings
p369
aVMarine Antennas
p370
aVStorage & Presentation Materials
p371
aVMP3 Players & Accessories
p372
aVAccessories
p373
aVCarpet & Vinyl
p374
aVBarking-Dog Alarms
p375
aVProtective Gear
p376
aVData Cables
p377
aVTripod & Monopod Cases
p378
aVBlank Media
p379
aVSurveillance Systems
p380
aVRouters
p381
aVPortable DVD Players
p382
aVRunning GPS Units
p383
aVHeadphone Accessories
p384
aVProjectors
p385
aVCompact System Camera Lenses
p386
aVBlu-ray Players
p387
aVExtension Tubes
p388
aVOffice Electronics Accessories
p389
aVSurveillance Accessories
p390
aVViewfinders
p391
aVAmplifier Wiring Kits
p392
aVSpeaker Installation
p393
aVCleaning Kits
p394
aVPillowcases
p395
aVGraphics Tablet Styluses
p396
aVFlash Accessories
p397
aVCables & Cords
p398
aVCD Racks
p399
aVSpeaker Mounts
p400
aVPlasma TVs
p401
aVTuners
p402
aVLens Supports
p403
aVCloths
p404
aVReading Lights
p405
aVTelescopes
p406
aVBluetooth Headsets
p407
aVAutomotive
p408
aVeBook Readers & Accessories
p409
aVDigital Media Receivers
p410
aVConnecting Blocks
p411
aVNetworking Products
p412
aVUSB Cables
p413
aVMarine Subwoofers
p414
aVContinuous Output Lighting
p415
aVTV-DVD Combinations
p416
aVCord Management
p417
aVInternal Memory Card Readers
p418
aVPhoto Studio
p419
aVParallel Cables
p420
aVAmplifier Harnesses
p421
aVCar Cradles & Mounts
p422
aVMultiroom Digital Music Systems
p423
aVSpeaker Repair Accessories
p424
aVMicrocassette Recorders
p425
aVWireless Jack Systems
p426
aVBluetooth Network Adapters
p427
aVDigital Picture Frames
p428
aVEnlarger Accessories
p429
aVBoxes
p430
aVComponent Subwoofers
p431
aVSIM Cards & Tools
p432
aVMonopod Heads
p433
aVShutter Release Cords
p434
aVFM Transmitters
p435
aVSurround Processors
p436
aVFireWire Port Cards
p437
aVLens Caps
p438
aVMotorcycle Accessory Mounts
p439
aVPhone Cards
p440
aVTV Accessories & Parts
p441
aVDocking Stations
p442
aVHeadsets & Microphones
p443
aVStrobe Lighting
p444
aVLine Conditioners
p445
aVCovers
p446
aVIn-Dash Navigation
p447
aVComputer Cases
p448
aVEnlargers
p449
aVProjector Mounts
p450
aVPort Tubes
p451
aVPower Packs
p452
aVAccess-Control Keypads
p453
aVRemote Home Monitoring Systems
p454
aVDew Caps
p455
aVGobos
p456
aVGame Hardware
p457
aVNeutral Density Filters
p458
aVMarine Stereos
p459
aVSurveillance Video Recorders
p460
aVSerial Cables
p461
aVProjector Bags
p462
aVComputer Cable Adapters
p463
aVFeeding
p464
aVTabletop & Travel Tripods
p465
aVPDA & Handheld Accessories
p466
aVPaper & Paper Crafts
p467
aVBooks
p468
aVDiagnostic & Test Tools
p469
aVMemory Card Adapters
p470
aVSelector Switch Boxes
p471
aVComputer Add-Ons
p472
aVSoundbar Speakers
p473
aVTV Screen Protectors
p474
aVHolsters & Clips
p475
aVDVI-HDMI Adapters
p476
aVBelts
p477
aVSleeves & Slipcases
p478
aVInternal Modems
p479
aVVideo Transmission Systems
p480
aVKick-Panel Enclosures
p481
aVFloppy & Tape Drives
p482
aVEnclosed Subwoofer Systems
p483
aVCamcorder Accessories
p484
aVConsoles & Organizers
p485
aVHard Drive Bags
p486
aVBattery Charger Cases
p487
aVPower Adapters
p488
aVAviation Handheld Radios
p489
aVWall Plates & Connectors
p490
aVMultichannel Amplifiers
p491
aVLighting Controls & Modifiers
p492
aVOn-Dash Video
p493
aVCrafts, Hobbies & Home
p494
aVAudio Cables
p495
aVGPS & Navigation
p496
aVLightning Cables
p497
aVVideo Projector Accessories
p498
aVKeyboard & Mice Accessories
p499
aVHousings
p500
aVTripod Mount Rings
p501
aVCables & Cradles
p502
aVSlide, Negative & Print Pages
p503
aVMinidiscs
p504
aVModem Cables
p505
aVDistribution Panels
p506
aVPower Inverters
p507
aVVideo
p508
aVAuxiliary Input Adapters
p509
aVAudio Adapters
p510
aVVCRs
p511
aVCB & Two-Way Radios
p512
aVSpeaker Grills
p513
aVCamcorder Lenses
p514
aVPoint & Shoot Digital Cameras
p515
aVHubs
p516
aVProjector Cases
p517
aVPhone Charms
p518
aVUnderwater Lenses
p519
aVTV Tuners
p520
aVTripods & Monopods
p521
aVScience & Math
p522
aVCD-R Discs
p523
aVExternal Zip Drives
p524
aVPurse Making
p525
aVAccessory Bundles
p526
aVBattery Chargers
p527
aVCompressed Air Dusters
p528
aVCompact System Camera Bundles
p529
aVAviation GPS
p530
aVIn-Mirror Video
p531
aVSystems
p532
aVBattery Grips
p533
aVBoomboxes
p534
aVSmart Watches & Accessories
p535
aVBinocular, Camera & Camcorder Straps
p536
aVStabilizers
p537
aVRain Covers
p538
aVStereo Microscopes
p539
aVLeashes & Cases
p540
aVPS/2 Cables
p541
aVInternal Blu-ray Drives
p542
aVRepair Kits
p543
aVLaptop Network Adapters
p544
aVCraft Supplies
p545
aVMiniSD Cards
p546
aVStreaming Media Players
p547
aVCord Reels
p548
aVHandheld CB Radios
p549
aVVideo Studio
p550
aVCases & Sleeves
p551
aVAmps
p552
aVConnected Devices
p553
aVDigital Handwriting Pads
p554
aVBlu-ray Drives
p555
aVGraphics Card Fans
p556
aVHandheld GPS Units
p557
aVMonitors
p558
aVCamera & Photo
p559
aVCar Safety & Security
p560
aVCar Audio
p561
aVStyling Tools
p562
aVWeather Radios
p563
aVAV Receivers & Amplifiers
p564
aVBedding
p565
aVGraduated Color Filters
p566
aVRemote-Control Extenders
p567
aVCar Mounts
p568
aVFloppy Diskettes
p569
aVLens Accessories
p570
aVFeet & Spikes
p571
aVMotherboards
p572
aVKeyboards & Styluses
p573
aVVGA Cables
p574
aVChargers & Cables
p575
aVBullet Cameras
p576
aVAir Filters
p577
aVComplete Tripods
p578
aVCD Players & Recorders
p579
aVInternet Radios
p580
aVChemicals
p581
aVBasic Cases
p582
aVPower Supplies
p583
aVDigital-to-Analog Converters
p584
aVSports & Handheld GPS
p585
aVDust Caps
p586
aVC
p587
aVChargers & Adapters
p588
aVMotor Drives
p589
aVRCA Cables
p590
aVCamera Supports & Stabilizers
p591
aVBlank Video Media
p592
aVVehicle Tracking and Monitoring Modules
p593
aVSync & PC Cords
p594
aVBlu-ray Players & Recorders
p595
aVAudio & Video Accessories
p596
aVReference
p597
aVDVD-R Discs
p598
aVUSB Microscopes
p599
aVDVD-RAM Discs
p600
aVBeauty
p601
aVVHS
p602
aVDVD+RW Discs
p603
aVTelescope & Microscope Accessories
p604
aVAudio Car Mounts
p605
aVRV GPS
p606
aVClock Radios
p607
aVSpeaker Sealant
p608
aVBatteries
p609
aVRepeaters
p610
aVFilter Sets
p611
aVMicro SD Cards
p612
aVTwo-Way Radios
p613
aVCamera Batteries
p614
aVUmbrellas
p615
aVBelts, Hoses & Pulleys
p616
aVTouch Pads
p617
aVCamera Brackets
p618
aVCameras
p619
aVBD-R Discs
p620
aVEnvironmental Science
p621
aVNetwork Transceivers
p622
aVRAID Controllers
p623
aVModems
p624
aVInternal TV Tuner & Capture Cards
p625
aVDisc Duplicators
p626
aVSurveillance Cameras
p627
aVHelmet Communication
p628
aVFilm Photography
p629
aVSurge Protectors
p630
aVVideo Multiplexers & Quads
p631
aVTelephone Accessories
p632
aVArts, Crafts & Sewing
p633
aVCar Accessories
p634
aVCamera Mounts & Clamps
p635
aVFiber Optic Cables
p636
aVUSB Flash Drives
p637
aVMedium Format Digital Cameras
p638
aVWater Cooling Systems
p639
aVRefractors
p640
aV3D Glasses
p641
aVHi-Fi & HT Cabinets
p642
aVDual-channel Amplifiers
p643
aVCompact Stereos
p644
aVMobile Broadband
p645
aVAdult Contemporary
p646
aVS-Video Cables
p647
aVCar Speakerphones
p648
aVHeatsinks
p649
aVEyepieces
p650
aVDesktops
p651
aVTeleprompters
p652
aVTape Libraries
p653
aVExternal Hard Drives
p654
aVPortable & Novelty TVs
p655
aVSimulated Cameras
p656
aVDigital Cameras
p657
aVTV Ceiling & Wall Mounts
p658
aVFans & Cooling
p659
aVMedium & Large-Format Cameras
p660
aVHome Theater Systems
p661
aVIrons
p662
aVCB Radios & Scanners
p663
aVCompactFlash Cards
p664
aVShoulder Bags
p665
aVCar Dash Mounting Kits
p666
aVSpecialty Film Cameras
p667
aVBinocular Accessories
p668
aVMinidisc Players
p669
aVPrint Servers
p670
aVParallel Port Cards
p671
aVMicroscopes
p672
aVComputer Equipment Warranties
p673
aVCell Phone Docks
p674
aVRear Projection TV Replacement Lamps
p675
aVHard Drive Cases
p676
aVExternal Components
p677
aVLamps
p678
aVRV Parts & Accessories
p679
aVCable Straps
p680
aVSkins & Decals
p681
aVTelevisions
p682
aVTV Remote Controls
p683
aVCar Stereo Receivers
p684
aVAircraft Accessories
p685
aVDigital Picture Frame Screen Protector Foils
p686
aVCD Recorders
p687
aVVideo Converters
p688
aVMonolights
p689
aVIn-Dash DVD & Video Receivers
p690
aVCar CD Visors
p691
aVFilters & Accessories
p692
aVMono Amplifiers
p693
aVLight Meters & Accessories
p694
aVMessenger Bags
p695
aVCalculator Accessories
p696
aVJump Starters, Battery Chargers & Portable Power
p697
aVPosing Props
p698
aVSatellite Speakers
p699
aVHome Audio Crossovers & Parts
p700
aVBlack & White Contrast Filters
p701
aVElectronics Warranties
p702
aVDome Cameras
p703
aVInternal Optical Drives
p704
aVCD Players
p705
aVCooling Fans
p706
aVAmplifier Installation
p707
aVPrinters & Scanners
p708
aVInstallation Services
p709
aVSatellite Dishes
p710
aVMP3 Player Accessories
p711
aVBluetooth Car Kits
p712
aVIR Illuminators
p713
aVPower & Ground Cable
p714
aVOn-Camera Video Lights
p715
aVTweeters
p716
aVCamera Sliders
p717
aVCD Drives
p718
aVCapacitors
p719
aVLaptop Barebones
p720
aVBinding Machine Supplies
p721
aVReflectors
p722
aVPoint & Shoot Digital Camera Bundles
p723
aVSD & SDHC Cards
p724
aVShooting Tables
p725
aVVoice Dialers
p726
aVPower-Cable Terminals
p727
aVCompressed Air
p728
aVEarpads
p729
aVCar Kits
p730
aVHome Audio
p731
aVInternal CD Drives
p732
aVExternal Sound Cards
p733
aVTravel Chargers
p734
aVAmplifiers
p735
aVBluetooth Speakers
p736
aVCar Video
p737
aVElectronics
p738
aVReceivers & Amplifiers
p739
aVCenter-Channel Speakers
p740
aVSLR Cameras
p741
aVGuiders & Wedges
p742
aVBarn Doors
p743
aVDistribution
p744
aVZip Discs
p745
aVBoating GPS Chartplotters
p746
aVArmbands
p747
aVProfessional Video Cameras
p748
aVPhoto Adapters
p749
aVTools & Equipment
p750
aVMounting Hardware
p751
aVVisor Accessories
p752
aVProjection Screens
p753
aVSubwoofer Amplifiers
p754
aVCD-RW Discs
p755
aVCamcorder Bundles
p756
aVPop
p757
aVFilm SLR Lenses
p758
aVLuggage & Travel Gear
p759
aVCables & Accessories
p760
aVComputer Speakers
p761
aVProjector Bags & Cases
p762
aVBatteries & Chargers
p763
aVSurveillance Video Equipment
p764
aVCases
p765
aVIsolation Transformers
p766
aVCable Ties
p767
aVRadar Detectors
p768
aVHidden Cameras
p769
aVInfrared Filters
p770
aVAudio-Video Components
p771
aVUnderwater Lighting
p772
aVLiquid Cleaners
p773
aVHair Care
p774
aVCastors
p775
aVNetwork Antennas
p776
aVDATs
p777
aVFixed-mount CB Radios
p778
aVFilm
p779
aVFilter Accessories
p780
aVAnalog-to-Digital (DTV) Converters
p781
aVLabeling Tapes
p782
aVHeadrest Video
p783
aVPoint & Shoot Film Cameras
p784
aVRF Modulators
p785
aVGrill Cloth
p786
aVComputer Vacuums
p787
aVKeyboard Skins
p788
aVTrucking GPS
p789
aVLight Boxes & Loupes
p790
aVCaller ID Displays
p791
aVSerial Adapters
p792
aVOLED TVs
p793
aVComponent Speakers
p794
aVVTR Decks
p795
aVMacro & Ringlight Flashes
p796
aVMarine Two-Way Radios
p797
aVComponent Amplifiers
p798
aVMounting Accessories
p799
aVHeadsets & Intercoms
p800
aVMarine Speakers
p801
aVReceivers
p802
aVMonitor Accessories
p803
aVMarine Amplifiers
p804
aVScreen Filters
p805
aVVCR Rewinders
p806
aVComposite Video
p807
aVSCSI Adapters
p808
aVSCSI Cables
p809
aVDarkroom Supplies
p810
aVAC Adapters
p811
aVCPU Cooling Fans
p812
aVShower Radios
p813
aVInternational Chargers
p814
aVAccessories & Supplies
p815
aVBoating GPS Accessories
p816
aVCatadioptric
p817
aVFolio Cases
p818
aVSpeaker Surround Kits
p819
aVSubwoofers
p820
aVPower-Distribution Components
p821
aVConnectors & Adapters
p822
aVMP3 Players
p823
aVSports & Action Video Cameras
p824
aVCase Fans
p825
aVGPS System Accessories
p826
aVHandset Cords
p827
aVDVD-VCR Combos
p828
aVMotorcycle Bluetooth Headsets
p829
aVSubwoofer Boxes and Enclosures
p830
aVDigital SLR Camera Bundles
p831
aVBiometrics
p832
aVBookshelf Speakers
p833
a.